; Function Attrs: mustprogress uwtable
define void @_ZN4YAML7Emitter11EmitNewlineEv(ptr noundef nonnull align 8 dereferenceable(72) %0) local_unnamed_addr #0 align 2 {
  %2 = load ptr, ptr %0, align 8, !tbaa !3
  %3 = load i8, ptr %2, align 8, !tbaa !21, !range !39, !noundef !40
  %4 = trunc nuw i8 %3 to i1
  br i1 %4, label %5, label %8

5:                                                ; preds = %1
  tail call void @_ZN4YAML7Emitter11PrepareNodeENS_15EmitterNodeType5valueE(ptr noundef nonnull align 8 dereferenceable(72) %0, i32 noundef 0)
  %6 = getelementptr inbounds nuw i8, ptr %0, i64 8
  tail call void @_ZN4YAML15ostream_wrapper5writeEPKcm(ptr noundef nonnull align 8 dereferenceable(57) %6, ptr noundef nonnull @.str.1, i64 noundef 1)
  %7 = load ptr, ptr %0, align 8, !tbaa !3
  tail call void @_ZN4YAML12EmitterState13SetNonContentEv(ptr noundef nonnull align 8 dereferenceable(224) %7)
  br label %8

8:                                                ; preds = %1, %5
  ret void
}